target datalayout = "e-m:e-p270:32:32-p271:32:32-p272:64:64-i64:64-i128:128-f80:128-n8:16:32:64-S128"
target triple = "x86_64-pc-linux-gnu"

%struct.test_fixture = type { ptr, i32, ptr, ptr, ptr, ptr, i32 }
%struct.ossl_cmp_msg_st = type { ptr, ptr, ptr, ptr, ptr, ptr }

@srvcert = internal global ptr null, align 8
@clcert = internal global ptr null, align 8
@libctx = internal global ptr null, align 8
@.str.14 = private unnamed_addr constant [31 x i8] c"../openssl/test/cmp_vfy_test.c\00", align 1
@ir_protected_f = internal global ptr null, align 8
@.str.75 = private unnamed_addr constant [18 x i8] c"fixture->expected\00", align 1
@.str.77 = private unnamed_addr constant [51 x i8] c"fixture->msg = load_pkimsg(ir_protected_f, libctx)\00", align 1
@.str.78 = private unnamed_addr constant [67 x i8] c"ossl_cmp_msg_check_update(fixture->cmp_ctx, fixture->msg, NULL, 0)\00", align 1
@.str.79 = private unnamed_addr constant [10 x i8] c"validated\00", align 1
@.str.80 = private unnamed_addr constant [14 x i8] c"fixture->cert\00", align 1
@__func__.test_validate_msg_signature_srvcert = private unnamed_addr constant [36 x i8] c"test_validate_msg_signature_srvcert\00", align 1
@.str.81 = private unnamed_addr constant [148 x i8] c"miss ? OSSL_CMP_CTX_set1_secretValue(fixture->cmp_ctx, sec_1, sizeof(sec_1)) : OSSL_CMP_CTX_set1_srvCert(fixture->cmp_ctx, wrong? clcert : srvcert)\00", align 1
@sec_1 = internal constant [19 x i8] c"9pp8-b35i-Xd3Q-udNR", align 16

; Function Attrs: nounwind uwtable
define internal i32 @execute_validate_msg_test(ptr noundef %0) #0 {
  %2 = alloca ptr, align 8
  %3 = alloca i32, align 4
  %4 = alloca ptr, align 8
  store ptr %0, ptr %2, align 8, !tbaa !24
  call void @llvm.lifetime.start.p0(i64 4, ptr %3) #7
  %5 = load ptr, ptr %2, align 8, !tbaa !24
  %6 = getelementptr inbounds nuw %struct.test_fixture, ptr %5, i32 0, i32 1
  %7 = load i32, ptr %6, align 8, !tbaa !27
  %8 = load ptr, ptr %2, align 8, !tbaa !24
  %9 = getelementptr inbounds nuw %struct.test_fixture, ptr %8, i32 0, i32 2
  %10 = load ptr, ptr %9, align 8, !tbaa !32
  %11 = load ptr, ptr %2, align 8, !tbaa !24
  %12 = getelementptr inbounds nuw %struct.test_fixture, ptr %11, i32 0, i32 3
  %13 = load ptr, ptr %12, align 8, !tbaa !31
  %14 = call i32 @ossl_cmp_msg_check_update(ptr noundef %10, ptr noundef %13, ptr noundef null, i32 noundef 0)
  %15 = call i32 @test_int_eq(ptr noundef @.str.14, i32 noundef 139, ptr noundef @.str.75, ptr noundef @.str.78, i32 noundef %7, i32 noundef %14)
  store i32 %15, ptr %3, align 4, !tbaa !26
  call void @llvm.lifetime.start.p0(i64 8, ptr %4) #7
  %16 = load ptr, ptr %2, align 8, !tbaa !24
  %17 = getelementptr inbounds nuw %struct.test_fixture, ptr %16, i32 0, i32 2
  %18 = load ptr, ptr %17, align 8, !tbaa !32
  %19 = call ptr @OSSL_CMP_CTX_get0_validatedSrvCert(ptr noundef %18)
  store ptr %19, ptr %4, align 8, !tbaa !4
  %20 = load i32, ptr %3, align 4, !tbaa !26
  %21 = icmp ne i32 %20, 0
  br i1 %21, label %22, label %36

22:                                               ; preds = %1
  %23 = load ptr, ptr %2, align 8, !tbaa !24
  %24 = getelementptr inbounds nuw %struct.test_fixture, ptr %23, i32 0, i32 1
  %25 = load i32, ptr %24, align 8, !tbaa !27
  %26 = icmp ne i32 %25, 0
  br i1 %26, label %27, label %34

27:                                               ; preds = %22
  %28 = load ptr, ptr %4, align 8, !tbaa !4
  %29 = load ptr, ptr %2, align 8, !tbaa !24
  %30 = getelementptr inbounds nuw %struct.test_fixture, ptr %29, i32 0, i32 4
  %31 = load ptr, ptr %30, align 8, !tbaa !30
  %32 = call i32 @test_ptr_eq(ptr noundef @.str.14, i32 noundef 142, ptr noundef @.str.79, ptr noundef @.str.80, ptr noundef %28, ptr noundef %31)
  %33 = icmp ne i32 %32, 0
  br label %34

34:                                               ; preds = %27, %22
  %35 = phi i1 [ true, %22 ], [ %33, %27 ]
  br label %36

36:                                               ; preds = %34, %1
  %37 = phi i1 [ false, %1 ], [ %35, %34 ]
  %38 = zext i1 %37 to i32
  call void @llvm.lifetime.end.p0(i64 8, ptr %4) #7
  call void @llvm.lifetime.end.p0(i64 4, ptr %3) #7
  ret i32 %38
}

; Function Attrs: nounwind uwtable
define internal void @tear_down(ptr noundef %0) #0 {
  %2 = alloca ptr, align 8
  store ptr %0, ptr %2, align 8, !tbaa !24
  %3 = load ptr, ptr %2, align 8, !tbaa !24
  %4 = getelementptr inbounds nuw %struct.test_fixture, ptr %3, i32 0, i32 3
  %5 = load ptr, ptr %4, align 8, !tbaa !31
  call void @OSSL_CMP_MSG_free(ptr noundef %5)
  %6 = load ptr, ptr %2, align 8, !tbaa !24
  %7 = getelementptr inbounds nuw %struct.test_fixture, ptr %6, i32 0, i32 2
  %8 = load ptr, ptr %7, align 8, !tbaa !32
  call void @OSSL_CMP_CTX_free(ptr noundef %8)
  %9 = load ptr, ptr %2, align 8, !tbaa !24
  call void @CRYPTO_free(ptr noundef %9, ptr noundef @.str.14, i32 noundef 47)
  ret void
}

; Function Attrs: nounwind uwtable
define internal i32 @flip_bit(ptr noundef %0) #0 {
  %2 = alloca ptr, align 8
  %3 = alloca i32, align 4
  %4 = alloca i32, align 4
  store ptr %0, ptr %2, align 8, !tbaa !58
  call void @llvm.lifetime.start.p0(i64 4, ptr %3) #7
  store i32 7, ptr %3, align 4, !tbaa !26
  call void @llvm.lifetime.start.p0(i64 4, ptr %4) #7
  %5 = load ptr, ptr %2, align 8, !tbaa !58
  %6 = load i32, ptr %3, align 4, !tbaa !26
  %7 = call i32 @ASN1_BIT_STRING_get_bit(ptr noundef %5, i32 noundef %6)
  store i32 %7, ptr %4, align 4, !tbaa !26
  %8 = load ptr, ptr %2, align 8, !tbaa !58
  %9 = load i32, ptr %3, align 4, !tbaa !26
  %10 = load i32, ptr %4, align 4, !tbaa !26
  %11 = icmp ne i32 %10, 0
  %12 = xor i1 %11, true
  %13 = zext i1 %12 to i32
  %14 = call i32 @ASN1_BIT_STRING_set_bit(ptr noundef %8, i32 noundef %9, i32 noundef %13)
  call void @llvm.lifetime.end.p0(i64 4, ptr %4) #7
  call void @llvm.lifetime.end.p0(i64 4, ptr %3) #7
  ret i32 %14
}

; Function Attrs: nounwind uwtable
define internal i32 @test_validate_msg_signature_srvcert(i32 noundef %0, i32 noundef %1, i32 noundef %2) #0 {
  %4 = alloca i32, align 4
  %5 = alloca i32, align 4
  %6 = alloca i32, align 4
  %7 = alloca i32, align 4
  %8 = alloca ptr, align 8
  %9 = alloca i32, align 4
  %10 = alloca i32, align 4
  store i32 %0, ptr %5, align 4, !tbaa !26
  store i32 %1, ptr %6, align 4, !tbaa !26
  store i32 %2, ptr %7, align 4, !tbaa !26
  call void @llvm.lifetime.start.p0(i64 8, ptr %8) #7
  %11 = call ptr @set_up(ptr noundef @__func__.test_validate_msg_signature_srvcert)
  store ptr %11, ptr %8, align 8, !tbaa !24
  call void @llvm.lifetime.start.p0(i64 4, ptr %9) #7
  store i32 0, ptr %9, align 4, !tbaa !26
  %12 = load ptr, ptr %8, align 8, !tbaa !24
  %13 = icmp eq ptr %12, null
  br i1 %13, label %14, label %15

14:                                               ; preds = %3
  store i32 0, ptr %4, align 4
  store i32 1, ptr %10, align 4
  br label %89

15:                                               ; preds = %3
  %16 = load ptr, ptr @srvcert, align 8, !tbaa !4
  %17 = load ptr, ptr %8, align 8, !tbaa !24
  %18 = getelementptr inbounds nuw %struct.test_fixture, ptr %17, i32 0, i32 4
  store ptr %16, ptr %18, align 8, !tbaa !30
  %19 = load i32, ptr %5, align 4, !tbaa !26
  %20 = icmp ne i32 %19, 0
  br i1 %20, label %28, label %21

21:                                               ; preds = %15
  %22 = load i32, ptr %7, align 4, !tbaa !26
  %23 = icmp ne i32 %22, 0
  br i1 %23, label %28, label %24

24:                                               ; preds = %21
  %25 = load i32, ptr %6, align 4, !tbaa !26
  %26 = icmp ne i32 %25, 0
  %27 = xor i1 %26, true
  br label %28

28:                                               ; preds = %24, %21, %15
  %29 = phi i1 [ false, %21 ], [ false, %15 ], [ %27, %24 ]
  %30 = zext i1 %29 to i32
  %31 = load ptr, ptr %8, align 8, !tbaa !24
  %32 = getelementptr inbounds nuw %struct.test_fixture, ptr %31, i32 0, i32 1
  store i32 %30, ptr %32, align 8, !tbaa !27
  %33 = load ptr, ptr @ir_protected_f, align 8, !tbaa !23
  %34 = load ptr, ptr @libctx, align 8, !tbaa !13
  %35 = call ptr @load_pkimsg(ptr noundef %33, ptr noundef %34)
  %36 = load ptr, ptr %8, align 8, !tbaa !24
  %37 = getelementptr inbounds nuw %struct.test_fixture, ptr %36, i32 0, i32 3
  store ptr %35, ptr %37, align 8, !tbaa !31
  %38 = call i32 @test_ptr(ptr noundef @.str.14, i32 noundef 264, ptr noundef @.str.77, ptr noundef %35)
  %39 = icmp ne i32 %38, 0
  br i1 %39, label %40, label %78

40:                                               ; preds = %28
  %41 = load i32, ptr %6, align 4, !tbaa !26
  %42 = icmp ne i32 %41, 0
  br i1 %42, label %43, label %48

43:                                               ; preds = %40
  %44 = load ptr, ptr %8, align 8, !tbaa !24
  %45 = getelementptr inbounds nuw %struct.test_fixture, ptr %44, i32 0, i32 2
  %46 = load ptr, ptr %45, align 8, !tbaa !32
  %47 = call i32 @OSSL_CMP_CTX_set1_secretValue(ptr noundef %46, ptr noundef @sec_1, i32 noundef 19)
  br label %61

48:                                               ; preds = %40
  %49 = load ptr, ptr %8, align 8, !tbaa !24
  %50 = getelementptr inbounds nuw %struct.test_fixture, ptr %49, i32 0, i32 2
  %51 = load ptr, ptr %50, align 8, !tbaa !32
  %52 = load i32, ptr %7, align 4, !tbaa !26
  %53 = icmp ne i32 %52, 0
  br i1 %53, label %54, label %56

54:                                               ; preds = %48
  %55 = load ptr, ptr @clcert, align 8, !tbaa !4
  br label %58

56:                                               ; preds = %48
  %57 = load ptr, ptr @srvcert, align 8, !tbaa !4
  br label %58

58:                                               ; preds = %56, %54
  %59 = phi ptr [ %55, %54 ], [ %57, %56 ]
  %60 = call i32 @OSSL_CMP_CTX_set1_srvCert(ptr noundef %51, ptr noundef %59)
  br label %61

61:                                               ; preds = %58, %43
  %62 = phi i32 [ %47, %43 ], [ %60, %58 ]
  %63 = icmp ne i32 %62, 0
  %64 = zext i1 %63 to i32
  %65 = call i32 @test_true(ptr noundef @.str.14, i32 noundef 268, ptr noundef @.str.81, i32 noundef %64)
  %66 = icmp ne i32 %65, 0
  br i1 %66, label %67, label %78

67:                                               ; preds = %61
  %68 = load i32, ptr %5, align 4, !tbaa !26
  %69 = icmp ne i32 %68, 0
  br i1 %69, label %70, label %80

70:                                               ; preds = %67
  %71 = load ptr, ptr %8, align 8, !tbaa !24
  %72 = getelementptr inbounds nuw %struct.test_fixture, ptr %71, i32 0, i32 3
  %73 = load ptr, ptr %72, align 8, !tbaa !31
  %74 = getelementptr inbounds nuw %struct.ossl_cmp_msg_st, ptr %73, i32 0, i32 2
  %75 = load ptr, ptr %74, align 8, !tbaa !62
  %76 = call i32 @flip_bit(ptr noundef %75)
  %77 = icmp ne i32 %76, 0
  br i1 %77, label %80, label %78

78:                                               ; preds = %70, %61, %28
  %79 = load ptr, ptr %8, align 8, !tbaa !24
  call void @tear_down(ptr noundef %79)
  store ptr null, ptr %8, align 8, !tbaa !24
  br label %80

80:                                               ; preds = %78, %70, %67
  %81 = load ptr, ptr %8, align 8, !tbaa !24
  %82 = icmp ne ptr %81, null
  br i1 %82, label %83, label %87

83:                                               ; preds = %80
  %84 = load ptr, ptr %8, align 8, !tbaa !24
  %85 = call i32 @execute_validate_msg_test(ptr noundef %84)
  store i32 %85, ptr %9, align 4, !tbaa !26
  %86 = load ptr, ptr %8, align 8, !tbaa !24
  call void @tear_down(ptr noundef %86)
  br label %87

87:                                               ; preds = %83, %80
  %88 = load i32, ptr %9, align 4, !tbaa !26
  store i32 %88, ptr %4, align 4
  store i32 1, ptr %10, align 4
  br label %89

89:                                               ; preds = %87, %14
  call void @llvm.lifetime.end.p0(i64 4, ptr %9) #7
  call void @llvm.lifetime.end.p0(i64 8, ptr %8) #7
  %90 = load i32, ptr %4, align 4
  ret i32 %90
}