; Function Attrs: nounwind uwtable
define internal fastcc range(i32 0, 2) i32 @test_validate_msg_signature_srvcert(i32 noundef range(i32 0, 2) %0, i32 noundef range(i32 0, 2) %1, i32 noundef range(i32 0, 2) %2) unnamed_addr #0 {
  %4 = tail call fastcc ptr @set_up(ptr noundef nonnull @__func__.test_validate_msg_signature_srvcert)
  %5 = icmp eq ptr %4, null
  br i1 %5, label %62, label %6

6:                                                ; preds = %3
  %7 = load ptr, ptr @srvcert, align 8, !tbaa !4
  %8 = getelementptr inbounds nuw i8, ptr %4, i64 32
  store ptr %7, ptr %8, align 8, !tbaa !29
  %.not = icmp eq i32 %0, 0
  %.not22 = icmp eq i32 %2, 0
  %9 = or i32 %1, %0
  %10 = or i32 %9, %2
  %11 = xor i32 %10, 1
  %12 = getelementptr inbounds nuw i8, ptr %4, i64 8
  store i32 %11, ptr %12, align 8, !tbaa !24
  %13 = load ptr, ptr @ir_protected_f, align 8, !tbaa !23
  %14 = load ptr, ptr @libctx, align 8, !tbaa !13
  %15 = tail call ptr @load_pkimsg(ptr noundef %13, ptr noundef %14) #7
  %16 = getelementptr inbounds nuw i8, ptr %4, i64 24
  store ptr %15, ptr %16, align 8, !tbaa !27
  %17 = tail call i32 @test_ptr(ptr noundef nonnull @.str.14, i32 noundef 264, ptr noundef nonnull @.str.77, ptr noundef %15) #7
  %.not24 = icmp eq i32 %17, 0
  br i1 %.not24, label %41, label %18

18:                                               ; preds = %6
  %.not23 = icmp eq i32 %1, 0
  %19 = getelementptr inbounds nuw i8, ptr %4, i64 16
  %20 = load ptr, ptr %19, align 8, !tbaa !28
  br i1 %.not23, label %23, label %21

21:                                               ; preds = %18
  %22 = tail call i32 @OSSL_CMP_CTX_set1_secretValue(ptr noundef %20, ptr noundef nonnull @sec_1, i32 noundef 19) #7
  br label %28

23:                                               ; preds = %18
  %24 = load ptr, ptr @clcert, align 8
  %25 = load ptr, ptr @srvcert, align 8
  %26 = select i1 %.not22, ptr %25, ptr %24
  %27 = tail call i32 @OSSL_CMP_CTX_set1_srvCert(ptr noundef %20, ptr noundef %26) #7
  br label %28

28:                                               ; preds = %23, %21
  %29 = phi i32 [ %22, %21 ], [ %27, %23 ]
  %30 = icmp ne i32 %29, 0
  %31 = zext i1 %30 to i32
  %32 = tail call i32 @test_true(ptr noundef nonnull @.str.14, i32 noundef 268, ptr noundef nonnull @.str.81, i32 noundef %31) #7
  %.not25 = icmp eq i32 %32, 0
  br i1 %.not25, label %41, label %33

33:                                               ; preds = %28
  br i1 %.not, label %44, label %34

34:                                               ; preds = %33
  %35 = load ptr, ptr %16, align 8, !tbaa !27
  %36 = getelementptr inbounds nuw i8, ptr %35, i64 16
  %37 = load ptr, ptr %36, align 8, !tbaa !52
  %38 = tail call i32 @ASN1_BIT_STRING_get_bit(ptr noundef %37, i32 noundef 7) #7
  %.not.i = icmp eq i32 %38, 0
  %39 = zext i1 %.not.i to i32
  %40 = tail call i32 @ASN1_BIT_STRING_set_bit(ptr noundef %37, i32 noundef 7, i32 noundef %39) #7
  %.not26 = icmp eq i32 %40, 0
  br i1 %.not26, label %41, label %44

41:                                               ; preds = %6, %28, %34
  %42 = load ptr, ptr %16, align 8, !tbaa !27
  tail call void @OSSL_CMP_MSG_free(ptr noundef %42) #7
  %43 = getelementptr inbounds nuw i8, ptr %4, i64 16
  br label %.sink.split

44:                                               ; preds = %34, %33
  %45 = load i32, ptr %12, align 8, !tbaa !24
  %46 = getelementptr inbounds nuw i8, ptr %4, i64 16
  %47 = load ptr, ptr %46, align 8, !tbaa !28
  %48 = load ptr, ptr %16, align 8, !tbaa !27
  %49 = tail call i32 @ossl_cmp_msg_check_update(ptr noundef %47, ptr noundef %48, ptr noundef null, i32 noundef 0) #7
  %50 = tail call i32 @test_int_eq(ptr noundef nonnull @.str.14, i32 noundef 139, ptr noundef nonnull @.str.75, ptr noundef nonnull @.str.78, i32 noundef %45, i32 noundef %49) #7
  %51 = load ptr, ptr %46, align 8, !tbaa !28
  %52 = tail call ptr @OSSL_CMP_CTX_get0_validatedSrvCert(ptr noundef %51) #7
  %.not.i28 = icmp eq i32 %50, 0
  br i1 %.not.i28, label %execute_validate_msg_test.exit, label %53

53:                                               ; preds = %44
  %54 = load i32, ptr %12, align 8, !tbaa !24
  %.not7.i = icmp eq i32 %54, 0
  br i1 %.not7.i, label %execute_validate_msg_test.exit, label %55

55:                                               ; preds = %53
  %56 = load ptr, ptr %8, align 8, !tbaa !29
  %57 = tail call i32 @test_ptr_eq(ptr noundef nonnull @.str.14, i32 noundef 142, ptr noundef nonnull @.str.79, ptr noundef nonnull @.str.80, ptr noundef %52, ptr noundef %56) #7
  %58 = icmp ne i32 %57, 0
  %59 = zext i1 %58 to i32
  br label %execute_validate_msg_test.exit

execute_validate_msg_test.exit:                   ; preds = %44, %53, %55
  %60 = phi i32 [ 0, %44 ], [ 1, %53 ], [ %59, %55 ]
  %61 = load ptr, ptr %16, align 8, !tbaa !27
  tail call void @OSSL_CMP_MSG_free(ptr noundef %61) #7
  br label %.sink.split

.sink.split:                                      ; preds = %execute_validate_msg_test.exit, %41
  %.sink.in = phi ptr [ %43, %41 ], [ %46, %execute_validate_msg_test.exit ]
  %.020.ph = phi i32 [ 0, %41 ], [ %60, %execute_validate_msg_test.exit ]
  %.sink = load ptr, ptr %.sink.in, align 8, !tbaa !28
  tail call void @OSSL_CMP_CTX_free(ptr noundef %.sink) #7
  tail call void @CRYPTO_free(ptr noundef nonnull %4, ptr noundef nonnull @.str.14, i32 noundef 47) #7
  br label %62

62:                                               ; preds = %.sink.split, %3
  %.020 = phi i32 [ 0, %3 ], [ %.020.ph, %.sink.split ]
  ret i32 %.020
}